target datalayout = "e-m:e-p270:32:32-p271:32:32-p272:64:64-i64:64-i128:128-f80:128-n8:16:32:64-S128"
target triple = "x86_64-pc-linux-gnu"

%struct.GlobalContext = type { %struct.HTable, ptr, ptr, ptr, ptr, ptr, ptr, ptr, ptr, i8, i32, i32, i32, ptr, ptr, %struct.HTable, %struct.HTable, %struct.Module_, %struct.DeclTable, %struct.DeclTable, %struct.Path_, ptr, ptr, ptr, ptr, ptr, ptr, ptr, [65536 x ptr], ptr, ptr, ptr }
%struct.HTable = type { i32, ptr }
%struct.Module_ = type { ptr, ptr, ptr, i16, i32, ptr, %struct.HTable, ptr, ptr, ptr, ptr, ptr, ptr, ptr, ptr, ptr }
%struct.DeclTable = type { i32, i32, i32, ptr }
%struct.Path_ = type { %union.SourceSpan, ptr, i32 }
%union.SourceSpan = type { i64 }
%struct.VHeader_ = type { i32, i32, [0 x i8] }
%struct.NameResolve = type { ptr, ptr, ptr, ptr, %union.SourceSpan, ptr, i8, i8 }
%struct.SemaContext_ = type { ptr, ptr, ptr, %struct.CallEnv, ptr, %union.SourceSpan, i32, i32, ptr, i32, ptr, i32, i32, ptr, ptr, i32, %struct.anon.89, ptr, ptr, ptr, %struct.DynamicScope_, ptr }
%struct.CallEnv = type { i16, ptr, %union.anon.60 }
%union.anon.60 = type { ptr }
%struct.anon.89 = type { i32, ptr, ptr, ptr, ptr, ptr, ptr, ptr, ptr, ptr, i8, ptr }
%struct.DynamicScope_ = type { i32, i8, i32, i32, i32, i32, i32, ptr, i32 }

@global_context = external global %struct.GlobalContext, align 8
@poisoned_decl = external global ptr, align 8
@.str.16 = private unnamed_addr constant [31 x i8] c"'%s' could not be found in %s.\00", align 1
@.str.17 = private unnamed_addr constant [46 x i8] c"Unknown module '%.*s', did you type it right?\00", align 1

; Function Attrs: nounwind uwtable
define internal zeroext i1 @matches_subpath(ptr noundef %0, ptr noundef %1) #0 {
  %3 = alloca i1, align 1
  %4 = alloca ptr, align 8
  %5 = alloca ptr, align 8
  %6 = alloca i64, align 8
  store ptr %0, ptr %4, align 8
  store ptr %1, ptr %5, align 8
  %7 = load ptr, ptr %5, align 8
  %8 = getelementptr inbounds %struct.Path_, ptr %7, i32 0, i32 1
  %9 = load ptr, ptr %8, align 8
  %10 = load ptr, ptr %4, align 8
  %11 = getelementptr inbounds %struct.Path_, ptr %10, i32 0, i32 1
  %12 = load ptr, ptr %11, align 8
  %13 = icmp eq ptr %9, %12
  br i1 %13, label %14, label %15

14:                                               ; preds = %2
  store i1 true, ptr %3, align 1
  br label %64

15:                                               ; preds = %2
  %16 = load ptr, ptr %4, align 8
  %17 = getelementptr inbounds %struct.Path_, ptr %16, i32 0, i32 2
  %18 = load i32, ptr %17, align 8
  %19 = zext i32 %18 to i64
  %20 = load ptr, ptr %5, align 8
  %21 = getelementptr inbounds %struct.Path_, ptr %20, i32 0, i32 2
  %22 = load i32, ptr %21, align 8
  %23 = zext i32 %22 to i64
  %24 = sub nsw i64 %19, %23
  store i64 %24, ptr %6, align 8
  %25 = load i64, ptr %6, align 8
  %26 = icmp slt i64 %25, 3
  br i1 %26, label %27, label %28

27:                                               ; preds = %15
  store i1 false, ptr %3, align 1
  br label %64

28:                                               ; preds = %15
  %29 = load ptr, ptr %4, align 8
  %30 = getelementptr inbounds %struct.Path_, ptr %29, i32 0, i32 1
  %31 = load ptr, ptr %30, align 8
  %32 = load i64, ptr %6, align 8
  %33 = sub nsw i64 %32, 1
  %34 = getelementptr inbounds i8, ptr %31, i64 %33
  %35 = load i8, ptr %34, align 1
  %36 = sext i8 %35 to i32
  %37 = icmp ne i32 %36, 58
  br i1 %37, label %48, label %38

38:                                               ; preds = %28
  %39 = load ptr, ptr %4, align 8
  %40 = getelementptr inbounds %struct.Path_, ptr %39, i32 0, i32 1
  %41 = load ptr, ptr %40, align 8
  %42 = load i64, ptr %6, align 8
  %43 = sub nsw i64 %42, 2
  %44 = getelementptr inbounds i8, ptr %41, i64 %43
  %45 = load i8, ptr %44, align 1
  %46 = sext i8 %45 to i32
  %47 = icmp ne i32 %46, 58
  br i1 %47, label %48, label %49

48:                                               ; preds = %38, %28
  store i1 false, ptr %3, align 1
  br label %64

49:                                               ; preds = %38
  %50 = load ptr, ptr %4, align 8
  %51 = getelementptr inbounds %struct.Path_, ptr %50, i32 0, i32 1
  %52 = load ptr, ptr %51, align 8
  %53 = load i64, ptr %6, align 8
  %54 = getelementptr inbounds i8, ptr %52, i64 %53
  %55 = load ptr, ptr %5, align 8
  %56 = getelementptr inbounds %struct.Path_, ptr %55, i32 0, i32 1
  %57 = load ptr, ptr %56, align 8
  %58 = load ptr, ptr %5, align 8
  %59 = getelementptr inbounds %struct.Path_, ptr %58, i32 0, i32 2
  %60 = load i32, ptr %59, align 8
  %61 = zext i32 %60 to i64
  %62 = call i32 @memcmp(ptr noundef %54, ptr noundef %57, i64 noundef %61) #8
  %63 = icmp eq i32 0, %62
  store i1 %63, ptr %3, align 1
  br label %64

64:                                               ; preds = %49, %48, %27, %14
  %65 = load i1, ptr %3, align 1
  ret i1 %65
}

; Function Attrs: nounwind uwtable
define dso_local ptr @sema_resolve_symbol(ptr noundef %0, ptr noundef %1, ptr noundef %2, i64 %3) #0 {
  %5 = alloca i32, align 4
  %6 = alloca ptr, align 8
  %7 = alloca ptr, align 8
  %8 = alloca i32, align 4
  %9 = alloca ptr, align 8
  %10 = alloca ptr, align 8
  %11 = alloca ptr, align 8
  %12 = alloca ptr, align 8
  %13 = alloca ptr, align 8
  %14 = alloca ptr, align 8
  %15 = alloca i8, align 1
  %16 = alloca ptr, align 8
  %17 = alloca ptr, align 8
  %18 = alloca i32, align 4
  %19 = alloca i32, align 4
  %20 = alloca ptr, align 8
  %21 = alloca ptr, align 8
  %22 = alloca i32, align 4
  %23 = alloca i32, align 4
  %24 = alloca ptr, align 8
  %25 = alloca %union.SourceSpan, align 8
  %26 = alloca ptr, align 8
  %27 = alloca ptr, align 8
  %28 = alloca ptr, align 8
  %29 = alloca %struct.NameResolve, align 8
  %30 = getelementptr inbounds %union.SourceSpan, ptr %25, i32 0, i32 0
  store i64 %3, ptr %30, align 8
  store ptr %0, ptr %26, align 8
  store ptr %1, ptr %27, align 8
  store ptr %2, ptr %28, align 8
  %31 = getelementptr inbounds %struct.NameResolve, ptr %29, i32 0, i32 0
  store ptr null, ptr %31, align 8
  %32 = getelementptr inbounds %struct.NameResolve, ptr %29, i32 0, i32 1
  store ptr null, ptr %32, align 8
  %33 = getelementptr inbounds %struct.NameResolve, ptr %29, i32 0, i32 2
  store ptr null, ptr %33, align 8
  %34 = getelementptr inbounds %struct.NameResolve, ptr %29, i32 0, i32 3
  %35 = load ptr, ptr %28, align 8
  store ptr %35, ptr %34, align 8
  %36 = getelementptr inbounds %struct.NameResolve, ptr %29, i32 0, i32 4
  call void @llvm.memcpy.p0.p0.i64(ptr align 8 %36, ptr align 8 %25, i64 8, i1 false)
  %37 = getelementptr inbounds %struct.NameResolve, ptr %29, i32 0, i32 5
  %38 = load ptr, ptr %27, align 8
  store ptr %38, ptr %37, align 8
  %39 = getelementptr inbounds %struct.NameResolve, ptr %29, i32 0, i32 6
  store i8 0, ptr %39, align 8
  %40 = getelementptr inbounds %struct.NameResolve, ptr %29, i32 0, i32 7
  store i8 0, ptr %40, align 1
  %41 = load ptr, ptr %26, align 8
  store ptr %41, ptr %12, align 8
  store ptr %29, ptr %13, align 8
  %42 = load ptr, ptr %13, align 8
  store ptr null, ptr %42, align 8
  %43 = load ptr, ptr %13, align 8
  %44 = getelementptr inbounds %struct.NameResolve, ptr %43, i32 0, i32 1
  store ptr null, ptr %44, align 8
  %45 = load ptr, ptr %13, align 8
  %46 = getelementptr inbounds %struct.NameResolve, ptr %45, i32 0, i32 6
  store i8 0, ptr %46, align 8
  %47 = load ptr, ptr %13, align 8
  %48 = getelementptr inbounds %struct.NameResolve, ptr %47, i32 0, i32 3
  %49 = load ptr, ptr %48, align 8
  %50 = icmp ne ptr %49, null
  br i1 %50, label %51, label %177

51:                                               ; preds = %4
  %52 = load ptr, ptr %12, align 8
  %53 = load ptr, ptr %13, align 8
  %54 = call ptr @sema_resolve_path_symbol(ptr noundef %52, ptr noundef %53)
  store ptr %54, ptr %14, align 8
  %55 = load ptr, ptr %14, align 8
  %56 = icmp ne ptr %55, null
  br i1 %56, label %176, label %57

57:                                               ; preds = %51
  %58 = load ptr, ptr %13, align 8
  %59 = getelementptr inbounds %struct.NameResolve, ptr %58, i32 0, i32 2
  %60 = load ptr, ptr %59, align 8
  %61 = icmp ne ptr %60, null
  br i1 %61, label %176, label %62

62:                                               ; preds = %57
  %63 = load ptr, ptr %13, align 8
  %64 = getelementptr inbounds %struct.NameResolve, ptr %63, i32 0, i32 6
  %65 = load i8, ptr %64, align 8
  %66 = trunc i8 %65 to i1
  br i1 %66, label %176, label %67

67:                                               ; preds = %62
  %68 = load ptr, ptr %13, align 8
  %69 = getelementptr inbounds %struct.NameResolve, ptr %68, i32 0, i32 7
  %70 = load i8, ptr %69, align 1
  %71 = trunc i8 %70 to i1
  br i1 %71, label %72, label %73

72:                                               ; preds = %67
  store ptr null, ptr %11, align 8
  br label %204

73:                                               ; preds = %67
  store i8 0, ptr %15, align 1
  store ptr null, ptr %16, align 8
  %74 = load ptr, ptr getelementptr inbounds (%struct.GlobalContext, ptr @global_context, i32 0, i32 2), align 8
  store ptr %74, ptr %17, align 8
  %75 = load ptr, ptr %17, align 8
  store ptr %75, ptr %6, align 8
  %76 = load ptr, ptr %6, align 8
  %77 = icmp ne ptr %76, null
  br i1 %77, label %79, label %78

78:                                               ; preds = %73
  store i32 0, ptr %5, align 4
  br label %84

79:                                               ; preds = %73
  %80 = load ptr, ptr %6, align 8
  store ptr %80, ptr %7, align 8
  %81 = load ptr, ptr %7, align 8
  %82 = getelementptr inbounds %struct.VHeader_, ptr %81, i64 -1
  %83 = load i32, ptr %82, align 4
  store i32 %83, ptr %5, align 4
  br label %84

84:                                               ; preds = %79, %78
  %85 = load i32, ptr %5, align 4
  store i32 %85, ptr %18, align 4
  store i32 0, ptr %19, align 4
  br label %86

86:                                               ; preds = %104, %84
  %87 = load i32, ptr %19, align 4
  %88 = load i32, ptr %18, align 4
  %89 = icmp ult i32 %87, %88
  br i1 %89, label %90, label %107

90:                                               ; preds = %86
  %91 = load ptr, ptr %17, align 8
  %92 = load i32, ptr %19, align 4
  %93 = zext i32 %92 to i64
  %94 = getelementptr inbounds ptr, ptr %91, i64 %93
  %95 = load ptr, ptr %94, align 8
  store ptr %95, ptr %20, align 8
  %96 = load ptr, ptr %20, align 8
  %97 = load ptr, ptr %96, align 8
  %98 = load ptr, ptr %13, align 8
  %99 = getelementptr inbounds %struct.NameResolve, ptr %98, i32 0, i32 3
  %100 = load ptr, ptr %99, align 8
  %101 = call zeroext i1 @matches_subpath(ptr noundef %97, ptr noundef %100)
  br i1 %101, label %102, label %104

102:                                              ; preds = %90
  %103 = load ptr, ptr %20, align 8
  store ptr %103, ptr %16, align 8
  br label %107

104:                                              ; preds = %90
  %105 = load i32, ptr %19, align 4
  %106 = add i32 %105, 1
  store i32 %106, ptr %19, align 4
  br label %86, !llvm.loop !32

107:                                              ; preds = %102, %86
  %108 = load ptr, ptr %16, align 8
  %109 = icmp ne ptr %108, null
  br i1 %109, label %145, label %110

110:                                              ; preds = %107
  %111 = load ptr, ptr getelementptr inbounds (%struct.GlobalContext, ptr @global_context, i32 0, i32 3), align 8
  store ptr %111, ptr %21, align 8
  %112 = load ptr, ptr %21, align 8
  store ptr %112, ptr %9, align 8
  %113 = load ptr, ptr %9, align 8
  %114 = icmp ne ptr %113, null
  br i1 %114, label %116, label %115

115:                                              ; preds = %110
  store i32 0, ptr %8, align 4
  br label %121

116:                                              ; preds = %110
  %117 = load ptr, ptr %9, align 8
  store ptr %117, ptr %10, align 8
  %118 = load ptr, ptr %10, align 8
  %119 = getelementptr inbounds %struct.VHeader_, ptr %118, i64 -1
  %120 = load i32, ptr %119, align 4
  store i32 %120, ptr %8, align 4
  br label %121

121:                                              ; preds = %116, %115
  %122 = load i32, ptr %8, align 4
  store i32 %122, ptr %22, align 4
  store i32 0, ptr %23, align 4
  br label %123

123:                                              ; preds = %141, %121
  %124 = load i32, ptr %23, align 4
  %125 = load i32, ptr %22, align 4
  %126 = icmp ult i32 %124, %125
  br i1 %126, label %127, label %144

127:                                              ; preds = %123
  %128 = load ptr, ptr %21, align 8
  %129 = load i32, ptr %23, align 4
  %130 = zext i32 %129 to i64
  %131 = getelementptr inbounds ptr, ptr %128, i64 %130
  %132 = load ptr, ptr %131, align 8
  store ptr %132, ptr %24, align 8
  %133 = load ptr, ptr %24, align 8
  %134 = load ptr, ptr %133, align 8
  %135 = load ptr, ptr %13, align 8
  %136 = getelementptr inbounds %struct.NameResolve, ptr %135, i32 0, i32 3
  %137 = load ptr, ptr %136, align 8
  %138 = call zeroext i1 @matches_subpath(ptr noundef %134, ptr noundef %137)
  br i1 %138, label %139, label %141

139:                                              ; preds = %127
  %140 = load ptr, ptr %24, align 8
  store ptr %140, ptr %16, align 8
  br label %144

141:                                              ; preds = %127
  %142 = load i32, ptr %23, align 4
  %143 = add i32 %142, 1
  store i32 %143, ptr %23, align 4
  br label %123, !llvm.loop !33

144:                                              ; preds = %139, %123
  br label %145

145:                                              ; preds = %144, %107
  %146 = load ptr, ptr %16, align 8
  %147 = icmp ne ptr %146, null
  br i1 %147, label %148, label %159

148:                                              ; preds = %145
  %149 = load ptr, ptr %13, align 8
  %150 = getelementptr inbounds %struct.NameResolve, ptr %149, i32 0, i32 4
  %151 = load ptr, ptr %13, align 8
  %152 = getelementptr inbounds %struct.NameResolve, ptr %151, i32 0, i32 5
  %153 = load ptr, ptr %152, align 8
  %154 = load ptr, ptr %16, align 8
  %155 = load ptr, ptr %154, align 8
  %156 = getelementptr inbounds %struct.Path_, ptr %155, i32 0, i32 1
  %157 = load ptr, ptr %156, align 8
  %158 = load i64, ptr %150, align 8
  call void (i64, ptr, ...) @sema_error_at(i64 %158, ptr noundef @.str.16, ptr noundef %153, ptr noundef %157) #7
  br label %174

159:                                              ; preds = %145
  %160 = load ptr, ptr %13, align 8
  %161 = getelementptr inbounds %struct.NameResolve, ptr %160, i32 0, i32 3
  %162 = load ptr, ptr %161, align 8
  %163 = load ptr, ptr %13, align 8
  %164 = getelementptr inbounds %struct.NameResolve, ptr %163, i32 0, i32 3
  %165 = load ptr, ptr %164, align 8
  %166 = getelementptr inbounds %struct.Path_, ptr %165, i32 0, i32 2
  %167 = load i32, ptr %166, align 8
  %168 = load ptr, ptr %13, align 8
  %169 = getelementptr inbounds %struct.NameResolve, ptr %168, i32 0, i32 3
  %170 = load ptr, ptr %169, align 8
  %171 = getelementptr inbounds %struct.Path_, ptr %170, i32 0, i32 1
  %172 = load ptr, ptr %171, align 8
  %173 = load i64, ptr %162, align 8
  call void (i64, ptr, ...) @sema_error_at(i64 %173, ptr noundef @.str.17, i32 noundef %167, ptr noundef %172) #7
  br label %174

174:                                              ; preds = %159, %148
  %175 = load ptr, ptr @poisoned_decl, align 8
  store ptr %175, ptr %11, align 8
  br label %204

176:                                              ; preds = %62, %57, %51
  br label %181

177:                                              ; preds = %4
  %178 = load ptr, ptr %12, align 8
  %179 = load ptr, ptr %13, align 8
  %180 = call ptr @sema_resolve_no_path_symbol(ptr noundef %178, ptr noundef %179)
  store ptr %180, ptr %14, align 8
  br label %181

181:                                              ; preds = %177, %176
  %182 = load ptr, ptr %14, align 8
  %183 = icmp ne ptr %182, null
  br i1 %183, label %184, label %188

184:                                              ; preds = %181
  %185 = load ptr, ptr %13, align 8
  %186 = load ptr, ptr %185, align 8
  %187 = icmp ne ptr %186, null
  br i1 %187, label %188, label %198

188:                                              ; preds = %184, %181
  %189 = load ptr, ptr %13, align 8
  %190 = getelementptr inbounds %struct.NameResolve, ptr %189, i32 0, i32 7
  %191 = load i8, ptr %190, align 1
  %192 = trunc i8 %191 to i1
  br i1 %192, label %193, label %194

193:                                              ; preds = %188
  store ptr null, ptr %11, align 8
  br label %204

194:                                              ; preds = %188
  %195 = load ptr, ptr %14, align 8
  %196 = load ptr, ptr %13, align 8
  call void @sema_report_error_on_decl(ptr noundef %195, ptr noundef %196)
  %197 = load ptr, ptr @poisoned_decl, align 8
  store ptr %197, ptr %11, align 8
  br label %204

198:                                              ; preds = %184
  %199 = load ptr, ptr %12, align 8
  %200 = getelementptr inbounds %struct.SemaContext_, ptr %199, i32 0, i32 2
  %201 = load ptr, ptr %200, align 8
  %202 = load ptr, ptr %14, align 8
  call void @unit_register_external_symbol(ptr noundef %201, ptr noundef %202) #7
  %203 = load ptr, ptr %14, align 8
  store ptr %203, ptr %11, align 8
  br label %204

204:                                              ; preds = %198, %194, %193, %174, %72
  %205 = load ptr, ptr %11, align 8
  ret ptr %205
}