; Function Attrs: nounwind uwtable
define dso_local ptr @sema_resolve_symbol(ptr nocapture noundef readonly %0, ptr noundef %1, ptr noundef %2, i64 %3) local_unnamed_addr #2 {
  %5 = alloca %struct.NameResolve, align 8
  %6 = getelementptr inbounds i8, ptr %5, i64 16
  %7 = getelementptr inbounds i8, ptr %5, i64 24
  %8 = getelementptr inbounds i8, ptr %5, i64 16
  store i64 0, ptr %8, align 8
  store ptr %2, ptr %7, align 8
  %9 = getelementptr inbounds i8, ptr %5, i64 32
  store i64 %3, ptr %9, align 8
  %10 = getelementptr inbounds i8, ptr %5, i64 40
  store ptr %1, ptr %10, align 8
  %11 = getelementptr inbounds i8, ptr %5, i64 48
  %12 = getelementptr inbounds i8, ptr %5, i64 49
  %.not = icmp eq ptr %2, null
  call void @llvm.memset.p0.i64(ptr noundef nonnull align 8 dereferenceable(16) %5, i8 0, i64 16, i1 false)
  store i16 0, ptr %11, align 8
  br i1 %.not, label %93, label %13

13:                                               ; preds = %4
  %14 = call fastcc ptr @sema_resolve_path_symbol(ptr noundef %0, ptr noundef nonnull %5)
  %.not67 = icmp eq ptr %14, null
  br i1 %.not67, label %15, label %95

15:                                               ; preds = %13
  %16 = load ptr, ptr %6, align 8
  %.not68 = icmp eq ptr %16, null
  br i1 %.not68, label %17, label %.thread94

17:                                               ; preds = %15
  %18 = load i8, ptr %11, align 8
  %19 = trunc i8 %18 to i1
  br i1 %19, label %.thread94, label %20

20:                                               ; preds = %17
  %21 = load i8, ptr %12, align 1
  %22 = trunc i8 %21 to i1
  br i1 %22, label %104, label %23

23:                                               ; preds = %20
  %24 = load ptr, ptr getelementptr inbounds (%struct.GlobalContext, ptr @global_context, i64 0, i32 2), align 8
  %.not69 = icmp eq ptr %24, null
  br i1 %.not69, label %._crit_edge, label %25

25:                                               ; preds = %23
  %26 = getelementptr inbounds i8, ptr %24, i64 -8
  %27 = load i32, ptr %26, align 4
  %.not107 = icmp eq i32 %27, 0
  br i1 %.not107, label %._crit_edge, label %.lr.ph

.lr.ph:                                           ; preds = %25
  %28 = load ptr, ptr %7, align 8
  %29 = getelementptr inbounds i8, ptr %28, i64 8
  %30 = load ptr, ptr %29, align 8
  %31 = getelementptr inbounds i8, ptr %28, i64 16
  %wide.trip.count = zext i32 %27 to i64
  br label %32

32:                                               ; preds = %.lr.ph, %matches_subpath.exit.thread
  %indvars.iv = phi i64 [ 0, %.lr.ph ], [ %indvars.iv.next, %matches_subpath.exit.thread ]
  %33 = getelementptr inbounds ptr, ptr %24, i64 %indvars.iv
  %34 = load ptr, ptr %33, align 8
  %35 = load ptr, ptr %34, align 8
  %36 = getelementptr inbounds i8, ptr %35, i64 8
  %37 = load ptr, ptr %36, align 8
  %38 = icmp eq ptr %30, %37
  br i1 %38, label %.thread, label %39

39:                                               ; preds = %32
  %40 = getelementptr inbounds i8, ptr %35, i64 16
  %41 = load i32, ptr %40, align 8
  %42 = zext i32 %41 to i64
  %43 = load i32, ptr %31, align 8
  %44 = zext i32 %43 to i64
  %45 = sub nsw i64 %42, %44
  %46 = icmp slt i64 %45, 3
  br i1 %46, label %matches_subpath.exit.thread, label %47

47:                                               ; preds = %39
  %48 = getelementptr i8, ptr %37, i64 %45
  %49 = getelementptr i8, ptr %48, i64 -1
  %50 = load i8, ptr %49, align 1
  %.not.i = icmp eq i8 %50, 58
  br i1 %.not.i, label %51, label %matches_subpath.exit.thread

51:                                               ; preds = %47
  %52 = getelementptr i8, ptr %48, i64 -2
  %53 = load i8, ptr %52, align 1
  %.not16.i = icmp eq i8 %53, 58
  br i1 %.not16.i, label %matches_subpath.exit, label %matches_subpath.exit.thread

matches_subpath.exit:                             ; preds = %51
  %bcmp.i = tail call i32 @bcmp(ptr %48, ptr %30, i64 %44)
  %54 = icmp eq i32 %bcmp.i, 0
  br i1 %54, label %.thread, label %matches_subpath.exit.thread

matches_subpath.exit.thread:                      ; preds = %47, %51, %39, %matches_subpath.exit
  %indvars.iv.next = add nuw nsw i64 %indvars.iv, 1
  %exitcond.not = icmp eq i64 %indvars.iv.next, %wide.trip.count
  br i1 %exitcond.not, label %._crit_edge, label %32, !llvm.loop !29

._crit_edge:                                      ; preds = %matches_subpath.exit.thread, %23, %25
  %55 = load ptr, ptr getelementptr inbounds (%struct.GlobalContext, ptr @global_context, i64 0, i32 3), align 8
  %.not71 = icmp eq ptr %55, null
  br i1 %.not71, label %.thread125, label %56

.thread125:                                       ; preds = %._crit_edge
  %.pre128 = load ptr, ptr %7, align 8
  br label %.._crit_edge106_crit_edge

56:                                               ; preds = %._crit_edge
  %57 = getelementptr inbounds i8, ptr %55, i64 -8
  %58 = load i32, ptr %57, align 4
  %.not108 = icmp eq i32 %58, 0
  %.pre = load ptr, ptr %7, align 8
  br i1 %.not108, label %.._crit_edge106_crit_edge, label %.lr.ph105

.._crit_edge106_crit_edge:                        ; preds = %.thread125, %56
  %.pre130 = phi ptr [ %.pre128, %.thread125 ], [ %.pre, %56 ]
  %.phi.trans.insert = getelementptr inbounds i8, ptr %.pre130, i64 16
  %.pre119 = load i32, ptr %.phi.trans.insert, align 8
  %.phi.trans.insert120 = getelementptr inbounds i8, ptr %.pre130, i64 8
  %.pre121 = load ptr, ptr %.phi.trans.insert120, align 8
  br label %._crit_edge106

.lr.ph105:                                        ; preds = %56
  %59 = getelementptr inbounds i8, ptr %.pre, i64 8
  %60 = load ptr, ptr %59, align 8
  %61 = getelementptr inbounds i8, ptr %.pre, i64 16
  %wide.trip.count117 = zext i32 %58 to i64
  br label %62

62:                                               ; preds = %.lr.ph105, %matches_subpath.exit79.thread
  %indvars.iv114 = phi i64 [ 0, %.lr.ph105 ], [ %indvars.iv.next115, %matches_subpath.exit79.thread ]
  %63 = getelementptr inbounds ptr, ptr %55, i64 %indvars.iv114
  %64 = load ptr, ptr %63, align 8
  %65 = load ptr, ptr %64, align 8
  %66 = getelementptr inbounds i8, ptr %65, i64 8
  %67 = load ptr, ptr %66, align 8
  %68 = icmp eq ptr %60, %67
  br i1 %68, label %.thread, label %69

69:                                               ; preds = %62
  %70 = getelementptr inbounds i8, ptr %65, i64 16
  %71 = load i32, ptr %70, align 8
  %72 = zext i32 %71 to i64
  %73 = load i32, ptr %61, align 8
  %74 = zext i32 %73 to i64
  %75 = sub nsw i64 %72, %74
  %76 = icmp slt i64 %75, 3
  br i1 %76, label %matches_subpath.exit79.thread, label %77

77:                                               ; preds = %69
  %78 = getelementptr i8, ptr %67, i64 %75
  %79 = getelementptr i8, ptr %78, i64 -1
  %80 = load i8, ptr %79, align 1
  %.not.i75 = icmp eq i8 %80, 58
  br i1 %.not.i75, label %81, label %matches_subpath.exit79.thread

81:                                               ; preds = %77
  %82 = getelementptr i8, ptr %78, i64 -2
  %83 = load i8, ptr %82, align 1
  %.not16.i77 = icmp eq i8 %83, 58
  br i1 %.not16.i77, label %matches_subpath.exit79, label %matches_subpath.exit79.thread

matches_subpath.exit79:                           ; preds = %81
  %bcmp.i78 = tail call i32 @bcmp(ptr %78, ptr %60, i64 %74)
  %84 = icmp eq i32 %bcmp.i78, 0
  br i1 %84, label %.thread, label %matches_subpath.exit79.thread

matches_subpath.exit79.thread:                    ; preds = %77, %81, %69, %matches_subpath.exit79
  %indvars.iv.next115 = add nuw nsw i64 %indvars.iv114, 1
  %exitcond118.not = icmp eq i64 %indvars.iv.next115, %wide.trip.count117
  br i1 %exitcond118.not, label %._crit_edge106, label %62, !llvm.loop !30

.thread:                                          ; preds = %32, %matches_subpath.exit, %62, %matches_subpath.exit79
  %85 = phi ptr [ %67, %matches_subpath.exit79 ], [ %67, %62 ], [ %37, %matches_subpath.exit ], [ %37, %32 ]
  %86 = load ptr, ptr %10, align 8
  %87 = load i64, ptr %9, align 8
  tail call void (i64, ptr, ...) @sema_error_at(i64 %87, ptr noundef nonnull @.str.16, ptr noundef %86, ptr noundef %85) #10
  br label %91

._crit_edge106:                                   ; preds = %matches_subpath.exit79.thread, %.._crit_edge106_crit_edge
  %.pre129 = phi ptr [ %.pre130, %.._crit_edge106_crit_edge ], [ %.pre, %matches_subpath.exit79.thread ]
  %88 = phi ptr [ %.pre121, %.._crit_edge106_crit_edge ], [ %60, %matches_subpath.exit79.thread ]
  %89 = phi i32 [ %.pre119, %.._crit_edge106_crit_edge ], [ %73, %matches_subpath.exit79.thread ]
  %90 = load i64, ptr %.pre129, align 8
  tail call void (i64, ptr, ...) @sema_error_at(i64 %90, ptr noundef nonnull @.str.17, i32 noundef %89, ptr noundef %88) #10
  br label %91

91:                                               ; preds = %._crit_edge106, %.thread
  %92 = load ptr, ptr @poisoned_decl, align 8
  br label %104

93:                                               ; preds = %4
  %94 = call fastcc ptr @sema_resolve_no_path_symbol(ptr noundef %0, ptr noundef nonnull %5)
  br label %95

95:                                               ; preds = %13, %93
  %.059 = phi ptr [ %14, %13 ], [ %94, %93 ]
  %.not73 = icmp ne ptr %.059, null
  %96 = load ptr, ptr %5, align 8
  %.not74 = icmp eq ptr %96, null
  %or.cond = select i1 %.not73, i1 %.not74, i1 false
  br i1 %or.cond, label %101, label %.thread94

.thread94:                                        ; preds = %17, %15, %95
  %.05999 = phi ptr [ %.059, %95 ], [ null, %15 ], [ null, %17 ]
  %97 = load i8, ptr %12, align 1
  %98 = trunc i8 %97 to i1
  br i1 %98, label %104, label %99

99:                                               ; preds = %.thread94
  call fastcc void @sema_report_error_on_decl(ptr noundef %.05999, ptr noundef nonnull %5)
  %100 = load ptr, ptr @poisoned_decl, align 8
  br label %104

101:                                              ; preds = %95
  %102 = getelementptr inbounds i8, ptr %0, i64 16
  %103 = load ptr, ptr %102, align 8
  tail call void @unit_register_external_symbol(ptr noundef %103, ptr noundef nonnull %.059) #10
  br label %104

104:                                              ; preds = %.thread94, %20, %101, %99, %91
  %.058 = phi ptr [ %100, %99 ], [ %.059, %101 ], [ %92, %91 ], [ null, %20 ], [ null, %.thread94 ]
  ret ptr %.058
}